Certificate:
    Data:
        Version: 3 (0x2)
        Serial Number:
            8f:62:ae:f9:8f:16:d1:a1
        Signature Algorithm: sha1WithRSAEncryption
        Issuer: C=SW, ST=Stockholm, O=KTH, OU=IMIT, CN=minisip/emailAddress=minisip-devel@minisip.org
        Validity
            Not Before: Jan 19 02:55:57 2007 GMT
            Not After : Jan 19 02:55:57 2008 GMT
        Subject: C=SW, ST=Stockholm, L=Stockholm, O=KTH, OU=IMIT, CN=alice/emailAddress=alice@minisip.org
        Subject Public Key Info:
            Public Key Algorithm: rsaEncryption
            RSA Public Key: (1024 bit)
                Modulus (1024 bit):
                    00:bb:db:a0:45:fb:53:8a:14:ec:68:85:9e:47:d7:
                    0a:b8:13:c6:87:c8:28:4d:10:77:9e:15:00:65:ed:
                    ca:fb:69:a6:21:8a:66:85:2e:04:31:16:60:97:70:
                    b2:28:04:04:af:3c:6b:14:b7:4a:6f:22:76:7c:6e:
                    26:a8:e5:49:26:6d:1d:8b:99:5f:53:f8:66:b5:4b:
                    bf:b5:6b:8c:b5:df:49:4e:f0:fd:f8:db:0b:b1:74:
                    ac:66:a8:fe:1e:11:94:2a:1a:98:bf:4b:f5:fc:91:
                    c6:b5:d3:f9:2f:2f:96:38:f8:fe:69:b8:88:c9:34:
                    2b:dc:c7:19:65:68:d7:2b:45
                Exponent: 65537 (0x10001)
        X509v3 extensions:
            X509v3 Basic Constraints: 
                CA:FALSE
            Netscape Comment: 
                OpenSSL Generated Certificate
            X509v3 Subject Key Identifier: 
                59:7F:11:94:C3:37:1F:1F:C6:01:C6:1E:24:3F:E6:32:20:2B:30:49
            X509v3 Authority Key Identifier: 
                keyid:CC:91:28:6C:95:67:CF:92:8F:69:CA:52:7C:41:2A:4D:C5:60:0C:83

    Signature Algorithm: sha1WithRSAEncryption
        06:f5:a6:83:8d:14:ba:31:08:c9:62:cb:38:b6:84:13:d1:66:
        f2:6b:27:fb:da:e1:07:0a:b4:f3:1e:d9:af:9f:09:9a:34:19:
        9c:72:6c:db:df:4c:57:23:70:ac:c6:78:ef:f7:7a:93:0f:0a:
        21:f1:b5:67:cf:d5:b4:3a:50:97:3f:9d:50:2f:ca:87:b4:32:
        a7:45:78:22:7c:ac:cf:6c:47:2d:8a:9d:a1:a3:ce:7c:67:99:
        e8:c5:d3:0f:7e:9f:0a:7e:69:f9:df:49:4f:42:76:b8:67:47:
        eb:ec:f0:af:1f:cd:7e:30:0b:e1:87:bb:07:56:93:8b:21:1e:
        ea:26
-----BEGIN CERTIFICATE-----
MIIC+DCCAmGgAwIBAgIJAI9irvmPFtGhMA0GCSqGSIb3DQEBBQUAMHoxCzAJBgNV
BAYTAlNXMRIwEAYDVQQIEwlTdG9ja2hvbG0xDDAKBgNVBAoTA0tUSDENMAsGA1UE
CxMESU1JVDEQMA4GA1UEAxMHbWluaXNpcDEoMCYGCSqGSIb3DQEJARYZbWluaXNp
cC1kZXZlbEBtaW5pc2lwLm9yZzAeFw0wNzAxMTkwMjU1NTdaFw0wODAxMTkwMjU1
NTdaMIGEMQswCQYDVQQGEwJTVzESMBAGA1UECBMJU3RvY2tob2xtMRIwEAYDVQQH
EwlTdG9ja2hvbG0xDDAKBgNVBAoTA0tUSDENMAsGA1UECxMESU1JVDEOMAwGA1UE
AxMFYWxpY2UxIDAeBgkqhkiG9w0BCQEWEWFsaWNlQG1pbmlzaXAub3JnMIGfMA0G
CSqGSIb3DQEBAQUAA4GNADCBiQKBgQC726BF+1OKFOxohZ5H1wq4E8aHyChNEHee
FQBl7cr7aaYhimaFLgQxFmCXcLIoBASvPGsUt0pvInZ8biao5UkmbR2LmV9T+Ga1
S7+1a4y130lO8P342wuxdKxmqP4eEZQqGpi/S/X8kca10/kvL5Y4+P5puIjJNCvc
xxllaNcrRQIDAQABo3sweTAJBgNVHRMEAjAAMCwGCWCGSAGG+EIBDQQfFh1PcGVu
U1NMIEdlbmVyYXRlZCBDZXJ0aWZpY2F0ZTAdBgNVHQ4EFgQUWX8RlMM3Hx/GAcYe
JD/mMiArMEkwHwYDVR0jBBgwFoAUzJEobJVnz5KPacpSfEEqTcVgDIMwDQYJKoZI
hvcNAQEFBQADgYEABvWmg40UujEIyWLLOLaEE9Fm8msn+9rhBwq08x7Zr58JmjQZ
nHJs299MVyNwrMZ47/d6kw8KIfG1Z8/VtDpQlz+dUC/Kh7Qyp0V4Inysz2xHLYqd
oaPOfGeZ6MXTD36fCn5p+d9JT0J2uGdH6+zwrx/NfjAL4Ye7B1aTiyEe6iY=
-----END CERTIFICATE-----
