Certificate:
    Data:
        Version: 3 (0x2)
        Serial Number:
            8f:62:ae:f9:8f:16:d1:a2
        Signature Algorithm: sha1WithRSAEncryption
        Issuer: C=SW, ST=Stockholm, O=KTH, OU=IMIT, CN=minisip/emailAddress=minisip-devel@minisip.org
        Validity
            Not Before: Jan 19 02:57:51 2007 GMT
            Not After : Jan 19 02:57:51 2008 GMT
        Subject: C=SW, ST=Stockholm, L=Stockholm, O=KTH, OU=IMIT, CN=Bob/emailAddress=bob@minisip.org
        Subject Public Key Info:
            Public Key Algorithm: rsaEncryption
            RSA Public Key: (1024 bit)
                Modulus (1024 bit):
                    00:cb:45:6c:5d:fc:d4:57:b9:3e:fe:64:e1:6b:d3:
                    0f:fb:16:e9:fc:4b:2a:53:e5:7a:e0:b9:93:be:4c:
                    d9:67:ef:2a:78:8d:8e:72:6b:8e:69:ed:0b:45:d3:
                    cf:a2:09:3a:b9:8e:3b:a9:53:0f:85:18:1e:60:f8:
                    5f:19:af:fa:89:ae:58:f4:7a:8c:39:f3:3f:e7:6e:
                    92:8a:85:6d:b5:80:c0:f2:4b:30:32:04:9b:71:6a:
                    bf:43:10:30:7e:ba:d2:80:c5:80:ac:60:9d:14:f0:
                    cc:29:9b:e8:5a:ec:02:9a:2d:93:a1:31:97:c6:8c:
                    7c:5f:2e:4c:e8:51:8b:b2:d3
                Exponent: 65537 (0x10001)
        X509v3 extensions:
            X509v3 Basic Constraints: 
                CA:FALSE
            Netscape Comment: 
                OpenSSL Generated Certificate
            X509v3 Subject Key Identifier: 
                85:A2:88:A7:1C:24:F2:2D:E9:65:B4:A0:2F:4B:DE:03:3A:48:09:28
            X509v3 Authority Key Identifier: 
                keyid:CC:91:28:6C:95:67:CF:92:8F:69:CA:52:7C:41:2A:4D:C5:60:0C:83

    Signature Algorithm: sha1WithRSAEncryption
        8e:af:77:76:03:d8:0e:56:f6:c2:27:da:74:b3:87:71:0e:61:
        4f:54:03:8c:31:d6:68:cb:90:fa:f1:fb:4d:f1:c2:2c:05:07:
        76:01:af:eb:bb:6e:0e:56:b9:27:52:14:56:97:cf:e2:b5:89:
        39:5c:c4:aa:89:10:a7:39:b7:d7:8d:53:d8:53:a4:7c:31:5d:
        77:0b:1b:29:88:f9:a7:23:36:7a:84:39:66:a5:52:5f:7c:bc:
        0e:f8:a8:65:0f:7b:ac:5e:ec:c2:cd:4e:4a:70:51:42:69:e0:
        6b:90:26:db:78:c6:47:9d:21:a3:dd:a6:bc:4e:ee:be:b5:db:
        43:33
-----BEGIN CERTIFICATE-----
MIIC9DCCAl2gAwIBAgIJAI9irvmPFtGiMA0GCSqGSIb3DQEBBQUAMHoxCzAJBgNV
BAYTAlNXMRIwEAYDVQQIEwlTdG9ja2hvbG0xDDAKBgNVBAoTA0tUSDENMAsGA1UE
CxMESU1JVDEQMA4GA1UEAxMHbWluaXNpcDEoMCYGCSqGSIb3DQEJARYZbWluaXNp
cC1kZXZlbEBtaW5pc2lwLm9yZzAeFw0wNzAxMTkwMjU3NTFaFw0wODAxMTkwMjU3
NTFaMIGAMQswCQYDVQQGEwJTVzESMBAGA1UECBMJU3RvY2tob2xtMRIwEAYDVQQH
EwlTdG9ja2hvbG0xDDAKBgNVBAoTA0tUSDENMAsGA1UECxMESU1JVDEMMAoGA1UE
AxMDQm9iMR4wHAYJKoZIhvcNAQkBFg9ib2JAbWluaXNpcC5vcmcwgZ8wDQYJKoZI
hvcNAQEBBQADgY0AMIGJAoGBAMtFbF381Fe5Pv5k4WvTD/sW6fxLKlPleuC5k75M
2WfvKniNjnJrjmntC0XTz6IJOrmOO6lTD4UYHmD4Xxmv+omuWPR6jDnzP+dukoqF
bbWAwPJLMDIEm3Fqv0MQMH660oDFgKxgnRTwzCmb6FrsApotk6Exl8aMfF8uTOhR
i7LTAgMBAAGjezB5MAkGA1UdEwQCMAAwLAYJYIZIAYb4QgENBB8WHU9wZW5TU0wg
R2VuZXJhdGVkIENlcnRpZmljYXRlMB0GA1UdDgQWBBSFooinHCTyLelltKAvS94D
OkgJKDAfBgNVHSMEGDAWgBTMkShslWfPko9pylJ8QSpNxWAMgzANBgkqhkiG9w0B
AQUFAAOBgQCOr3d2A9gOVvbCJ9p0s4dxDmFPVAOMMdZoy5D68ftN8cIsBQd2Aa/r
u24OVrknUhRWl8/itYk5XMSqiRCnObfXjVPYU6R8MV13CxspiPmnIzZ6hDlmpVJf
fLwO+KhlD3usXuzCzU5KcFFCaeBrkCbbeMZHnSGj3aa8Tu6+tdtDMw==
-----END CERTIFICATE-----
