Certificate:
    Data:
        Version: 3 (0x2)
        Serial Number:
            8f:62:ae:f9:8f:16:d1:a0
        Signature Algorithm: sha1WithRSAEncryption
        Issuer: C=SW, ST=Stockholm, O=KTH, OU=IMIT, CN=minisip/emailAddress=minisip-devel@minisip.org
        Validity
            Not Before: Jan 19 02:52:11 2007 GMT
            Not After : Jan 18 02:52:11 2010 GMT
        Subject: C=SW, ST=Stockholm, O=KTH, OU=IMIT, CN=minisip/emailAddress=minisip-devel@minisip.org
        Subject Public Key Info:
            Public Key Algorithm: rsaEncryption
            RSA Public Key: (1024 bit)
                Modulus (1024 bit):
                    00:d5:a6:3d:14:05:86:55:36:4a:72:7f:d2:37:e6:
                    51:32:e4:d5:13:2f:a1:52:9e:e8:b9:9f:99:cc:9b:
                    39:7c:fd:bb:96:5b:0d:7c:44:e0:19:6c:6a:9f:8a:
                    bb:0c:f9:e2:b4:f4:2e:54:28:dc:c9:07:d3:2f:02:
                    63:75:3a:50:49:0c:61:09:f3:dc:e5:62:c0:4a:65:
                    ba:ba:bb:22:c0:df:dc:9d:95:b9:9a:33:ad:9a:30:
                    f4:b8:06:68:60:1d:ca:0c:85:44:c6:b4:d2:91:05:
                    b2:fe:94:7d:bb:ec:fa:0c:89:35:b1:41:63:ad:96:
                    d3:05:d1:70:d1:44:eb:42:59
                Exponent: 65537 (0x10001)
        X509v3 extensions:
            X509v3 Subject Key Identifier: 
                CC:91:28:6C:95:67:CF:92:8F:69:CA:52:7C:41:2A:4D:C5:60:0C:83
            X509v3 Authority Key Identifier: 
                keyid:CC:91:28:6C:95:67:CF:92:8F:69:CA:52:7C:41:2A:4D:C5:60:0C:83
                DirName:/C=SW/ST=Stockholm/O=KTH/OU=IMIT/CN=minisip/emailAddress=minisip-devel@minisip.org
                serial:8F:62:AE:F9:8F:16:D1:A0

            X509v3 Basic Constraints: 
                CA:TRUE
    Signature Algorithm: sha1WithRSAEncryption
        cc:f3:1d:d1:53:8c:64:50:81:a9:50:c2:85:1f:1f:cc:ef:d8:
        a5:48:47:3a:91:73:14:23:78:4f:dd:30:ce:ef:a5:dd:1a:2f:
        bc:41:36:1c:12:4d:54:a6:f0:c0:e7:c3:b0:21:e8:f2:88:40:
        a5:0c:9e:5f:1e:5c:b1:a0:1a:3d:01:af:71:5b:23:76:0d:ac:
        87:be:48:65:ab:b6:27:f1:d7:d9:ad:77:ac:bc:7a:d1:7d:16:
        25:33:84:e2:0b:07:f9:5c:8a:78:b7:51:bf:56:e3:1b:3f:49:
        07:22:65:dd:3a:db:4d:7a:4f:05:d1:9a:48:b6:89:72:14:e2:
        24:4a
-----BEGIN CERTIFICATE-----
MIIDUjCCArugAwIBAgIJAI9irvmPFtGgMA0GCSqGSIb3DQEBBQUAMHoxCzAJBgNV
BAYTAlNXMRIwEAYDVQQIEwlTdG9ja2hvbG0xDDAKBgNVBAoTA0tUSDENMAsGA1UE
CxMESU1JVDEQMA4GA1UEAxMHbWluaXNpcDEoMCYGCSqGSIb3DQEJARYZbWluaXNp
cC1kZXZlbEBtaW5pc2lwLm9yZzAeFw0wNzAxMTkwMjUyMTFaFw0xMDAxMTgwMjUy
MTFaMHoxCzAJBgNVBAYTAlNXMRIwEAYDVQQIEwlTdG9ja2hvbG0xDDAKBgNVBAoT
A0tUSDENMAsGA1UECxMESU1JVDEQMA4GA1UEAxMHbWluaXNpcDEoMCYGCSqGSIb3
DQEJARYZbWluaXNpcC1kZXZlbEBtaW5pc2lwLm9yZzCBnzANBgkqhkiG9w0BAQEF
AAOBjQAwgYkCgYEA1aY9FAWGVTZKcn/SN+ZRMuTVEy+hUp7ouZ+ZzJs5fP27llsN
fETgGWxqn4q7DPnitPQuVCjcyQfTLwJjdTpQSQxhCfPc5WLASmW6ursiwN/cnZW5
mjOtmjD0uAZoYB3KDIVExrTSkQWy/pR9u+z6DIk1sUFjrZbTBdFw0UTrQlkCAwEA
AaOB3zCB3DAdBgNVHQ4EFgQUzJEobJVnz5KPacpSfEEqTcVgDIMwgawGA1UdIwSB
pDCBoYAUzJEobJVnz5KPacpSfEEqTcVgDIOhfqR8MHoxCzAJBgNVBAYTAlNXMRIw
EAYDVQQIEwlTdG9ja2hvbG0xDDAKBgNVBAoTA0tUSDENMAsGA1UECxMESU1JVDEQ
MA4GA1UEAxMHbWluaXNpcDEoMCYGCSqGSIb3DQEJARYZbWluaXNpcC1kZXZlbEBt
aW5pc2lwLm9yZ4IJAI9irvmPFtGgMAwGA1UdEwQFMAMBAf8wDQYJKoZIhvcNAQEF
BQADgYEAzPMd0VOMZFCBqVDChR8fzO/YpUhHOpFzFCN4T90wzu+l3RovvEE2HBJN
VKbwwOfDsCHo8ohApQyeXx5csaAaPQGvcVsjdg2sh75IZau2J/HX2a13rLx60X0W
JTOE4gsH+VyKeLdRv1bjGz9JByJl3TrbTXpPBdGaSLaJchTiJEo=
-----END CERTIFICATE-----
